target datalayout = "e-m:e-p270:32:32-p271:32:32-p272:64:64-i64:64-i128:128-f80:128-n8:16:32:64-S128"
target triple = "x86_64-pc-linux-gnu"

%struct.pmix_output_desc_t = type { i8, i8, i32, i8, i32, ptr, ptr, i32, ptr, i32, i8, i8, i8, i8, ptr, i32, i32 }

@pmix_output_info = global [64 x %struct.pmix_output_desc_t] zeroinitializer, align 16
@.str.11 = private unnamed_addr constant [26 x i8] c"dump data at %p %d bytes\0A\00", align 1
@.str.12 = private unnamed_addr constant [7 x i8] c"%06x: \00", align 1
@.str.13 = private unnamed_addr constant [6 x i8] c"%02x \00", align 1
@.str.14 = private unnamed_addr constant [4 x i8] c"   \00", align 1
@.str.15 = private unnamed_addr constant [2 x i8] c" \00", align 1
@.str.16 = private unnamed_addr constant [3 x i8] c"%c\00", align 1
@.str.17 = private unnamed_addr constant [2 x i8] c"\0A\00", align 1
@.str.18 = private unnamed_addr constant [3 x i8] c"%s\00", align 1

; Function Attrs: nounwind uwtable
define void @pmix_output_hexdump(i32 noundef %0, i32 noundef %1, ptr noundef %2, i32 noundef %3) #0 {
  %5 = alloca i32, align 4
  %6 = alloca i32, align 4
  %7 = alloca ptr, align 8
  %8 = alloca i32, align 4
  %9 = alloca ptr, align 8
  %10 = alloca [120 x i8], align 16
  %11 = alloca i32, align 4
  %12 = alloca i32, align 4
  %13 = alloca i32, align 4
  %14 = alloca i32, align 4
  %15 = alloca i32, align 4
  store i32 %0, ptr %5, align 4, !tbaa !33
  store i32 %1, ptr %6, align 4, !tbaa !33
  store ptr %2, ptr %7, align 8, !tbaa !62
  store i32 %3, ptr %8, align 4, !tbaa !33
  call void @llvm.lifetime.start.p0(i64 8, ptr %9) #12
  %16 = load ptr, ptr %7, align 8, !tbaa !62
  store ptr %16, ptr %9, align 8, !tbaa !32
  call void @llvm.lifetime.start.p0(i64 120, ptr %10) #12
  call void @llvm.lifetime.start.p0(i64 4, ptr %11) #12
  store i32 0, ptr %11, align 4, !tbaa !33
  call void @llvm.lifetime.start.p0(i64 4, ptr %12) #12
  store i32 0, ptr %12, align 4, !tbaa !33
  call void @llvm.lifetime.start.p0(i64 4, ptr %13) #12
  call void @llvm.lifetime.start.p0(i64 4, ptr %14) #12
  %17 = load i32, ptr %6, align 4, !tbaa !33
  %18 = icmp sge i32 %17, 0
  br i1 %18, label %19, label %205

19:                                               ; preds = %4
  %20 = load i32, ptr %6, align 4, !tbaa !33
  %21 = icmp slt i32 %20, 64
  br i1 %21, label %22, label %205

22:                                               ; preds = %19
  %23 = load i32, ptr %6, align 4, !tbaa !33
  %24 = sext i32 %23 to i64
  %25 = getelementptr inbounds [64 x %struct.pmix_output_desc_t], ptr @pmix_output_info, i64 0, i64 %24
  %26 = getelementptr inbounds nuw %struct.pmix_output_desc_t, ptr %25, i32 0, i32 2
  %27 = load i32, ptr %26, align 4, !tbaa !66
  %28 = load i32, ptr %5, align 4, !tbaa !33
  %29 = icmp sge i32 %27, %28
  br i1 %29, label %30, label %205

30:                                               ; preds = %22
  %31 = load i32, ptr %6, align 4, !tbaa !33
  %32 = icmp sge i32 %31, 0
  br i1 %32, label %33, label %48

33:                                               ; preds = %30
  %34 = load i32, ptr %6, align 4, !tbaa !33
  %35 = icmp slt i32 %34, 64
  br i1 %35, label %36, label %48

36:                                               ; preds = %33
  %37 = load i32, ptr %6, align 4, !tbaa !33
  %38 = sext i32 %37 to i64
  %39 = getelementptr inbounds [64 x %struct.pmix_output_desc_t], ptr @pmix_output_info, i64 0, i64 %38
  %40 = getelementptr inbounds nuw %struct.pmix_output_desc_t, ptr %39, i32 0, i32 2
  %41 = load i32, ptr %40, align 4, !tbaa !66
  %42 = load i32, ptr %5, align 4, !tbaa !33
  %43 = icmp sge i32 %41, %42
  br i1 %43, label %44, label %48

44:                                               ; preds = %36
  %45 = load i32, ptr %6, align 4, !tbaa !33
  %46 = load ptr, ptr %7, align 8, !tbaa !62
  %47 = load i32, ptr %8, align 4, !tbaa !33
  call void (i32, ptr, ...) @pmix_output(i32 noundef %45, ptr noundef @.str.11, ptr noundef %46, i32 noundef %47)
  br label %48

48:                                               ; preds = %44, %36, %33, %30
  store i32 0, ptr %13, align 4, !tbaa !33
  br label %49

49:                                               ; preds = %201, %48
  %50 = load i32, ptr %13, align 4, !tbaa !33
  %51 = load i32, ptr %8, align 4, !tbaa !33
  %52 = icmp slt i32 %50, %51
  br i1 %52, label %53, label %204

53:                                               ; preds = %49
  store i32 0, ptr %12, align 4, !tbaa !33
  %54 = getelementptr inbounds [120 x i8], ptr %10, i64 0, i64 0
  %55 = load i32, ptr %12, align 4, !tbaa !33
  %56 = sext i32 %55 to i64
  %57 = getelementptr inbounds i8, ptr %54, i64 %56
  %58 = load i32, ptr %13, align 4, !tbaa !33
  %59 = call i32 (ptr, ptr, ...) @sprintf(ptr noundef %57, ptr noundef @.str.12, i32 noundef %58) #12
  store i32 %59, ptr %11, align 4, !tbaa !33
  %60 = load i32, ptr %11, align 4, !tbaa !33
  %61 = icmp slt i32 %60, 0
  br i1 %61, label %62, label %63

62:                                               ; preds = %53
  store i32 1, ptr %15, align 4
  br label %206

63:                                               ; preds = %53
  %64 = load i32, ptr %11, align 4, !tbaa !33
  %65 = load i32, ptr %12, align 4, !tbaa !33
  %66 = add nsw i32 %65, %64
  store i32 %66, ptr %12, align 4, !tbaa !33
  store i32 0, ptr %14, align 4, !tbaa !33
  br label %67

67:                                               ; preds = %104, %63
  %68 = load i32, ptr %14, align 4, !tbaa !33
  %69 = icmp slt i32 %68, 16
  br i1 %69, label %70, label %107

70:                                               ; preds = %67
  %71 = load i32, ptr %13, align 4, !tbaa !33
  %72 = load i32, ptr %14, align 4, !tbaa !33
  %73 = add nsw i32 %71, %72
  %74 = load i32, ptr %8, align 4, !tbaa !33
  %75 = icmp slt i32 %73, %74
  br i1 %75, label %76, label %90

76:                                               ; preds = %70
  %77 = getelementptr inbounds [120 x i8], ptr %10, i64 0, i64 0
  %78 = load i32, ptr %12, align 4, !tbaa !33
  %79 = sext i32 %78 to i64
  %80 = getelementptr inbounds i8, ptr %77, i64 %79
  %81 = load ptr, ptr %9, align 8, !tbaa !32
  %82 = load i32, ptr %13, align 4, !tbaa !33
  %83 = load i32, ptr %14, align 4, !tbaa !33
  %84 = add nsw i32 %82, %83
  %85 = sext i32 %84 to i64
  %86 = getelementptr inbounds i8, ptr %81, i64 %85
  %87 = load i8, ptr %86, align 1, !tbaa !39
  %88 = zext i8 %87 to i32
  %89 = call i32 (ptr, ptr, ...) @sprintf(ptr noundef %80, ptr noundef @.str.13, i32 noundef %88) #12
  store i32 %89, ptr %11, align 4, !tbaa !33
  br label %96

90:                                               ; preds = %70
  %91 = getelementptr inbounds [120 x i8], ptr %10, i64 0, i64 0
  %92 = load i32, ptr %12, align 4, !tbaa !33
  %93 = sext i32 %92 to i64
  %94 = getelementptr inbounds i8, ptr %91, i64 %93
  %95 = call i32 (ptr, ptr, ...) @sprintf(ptr noundef %94, ptr noundef @.str.14) #12
  store i32 %95, ptr %11, align 4, !tbaa !33
  br label %96

96:                                               ; preds = %90, %76
  %97 = load i32, ptr %11, align 4, !tbaa !33
  %98 = icmp slt i32 %97, 0
  br i1 %98, label %99, label %100

99:                                               ; preds = %96
  store i32 1, ptr %15, align 4
  br label %206

100:                                              ; preds = %96
  %101 = load i32, ptr %11, align 4, !tbaa !33
  %102 = load i32, ptr %12, align 4, !tbaa !33
  %103 = add nsw i32 %102, %101
  store i32 %103, ptr %12, align 4, !tbaa !33
  br label %104

104:                                              ; preds = %100
  %105 = load i32, ptr %14, align 4, !tbaa !33
  %106 = add nsw i32 %105, 1
  store i32 %106, ptr %14, align 4, !tbaa !33
  br label %67, !llvm.loop !81

107:                                              ; preds = %67
  %108 = getelementptr inbounds [120 x i8], ptr %10, i64 0, i64 0
  %109 = load i32, ptr %12, align 4, !tbaa !33
  %110 = sext i32 %109 to i64
  %111 = getelementptr inbounds i8, ptr %108, i64 %110
  %112 = call i32 (ptr, ptr, ...) @sprintf(ptr noundef %111, ptr noundef @.str.15) #12
  store i32 %112, ptr %11, align 4, !tbaa !33
  %113 = load i32, ptr %11, align 4, !tbaa !33
  %114 = icmp slt i32 %113, 0
  br i1 %114, label %115, label %116

115:                                              ; preds = %107
  store i32 1, ptr %15, align 4
  br label %206

116:                                              ; preds = %107
  %117 = load i32, ptr %11, align 4, !tbaa !33
  %118 = load i32, ptr %12, align 4, !tbaa !33
  %119 = add nsw i32 %118, %117
  store i32 %119, ptr %12, align 4, !tbaa !33
  store i32 0, ptr %14, align 4, !tbaa !33
  br label %120

120:                                              ; preds = %171, %116
  %121 = load i32, ptr %14, align 4, !tbaa !33
  %122 = icmp slt i32 %121, 16
  br i1 %122, label %123, label %174

123:                                              ; preds = %120
  %124 = load i32, ptr %13, align 4, !tbaa !33
  %125 = load i32, ptr %14, align 4, !tbaa !33
  %126 = add nsw i32 %124, %125
  %127 = load i32, ptr %8, align 4, !tbaa !33
  %128 = icmp slt i32 %126, %127
  br i1 %128, label %129, label %170

129:                                              ; preds = %123
  %130 = getelementptr inbounds [120 x i8], ptr %10, i64 0, i64 0
  %131 = load i32, ptr %12, align 4, !tbaa !33
  %132 = sext i32 %131 to i64
  %133 = getelementptr inbounds i8, ptr %130, i64 %132
  %134 = call ptr @__ctype_b_loc() #14
  %135 = load ptr, ptr %134, align 8, !tbaa !82
  %136 = load ptr, ptr %9, align 8, !tbaa !32
  %137 = load i32, ptr %13, align 4, !tbaa !33
  %138 = load i32, ptr %14, align 4, !tbaa !33
  %139 = add nsw i32 %137, %138
  %140 = sext i32 %139 to i64
  %141 = getelementptr inbounds i8, ptr %136, i64 %140
  %142 = load i8, ptr %141, align 1, !tbaa !39
  %143 = zext i8 %142 to i32
  %144 = sext i32 %143 to i64
  %145 = getelementptr inbounds i16, ptr %135, i64 %144
  %146 = load i16, ptr %145, align 2, !tbaa !84
  %147 = zext i16 %146 to i32
  %148 = and i32 %147, 16384
  %149 = icmp ne i32 %148, 0
  br i1 %149, label %150, label %159

150:                                              ; preds = %129
  %151 = load ptr, ptr %9, align 8, !tbaa !32
  %152 = load i32, ptr %13, align 4, !tbaa !33
  %153 = load i32, ptr %14, align 4, !tbaa !33
  %154 = add nsw i32 %152, %153
  %155 = sext i32 %154 to i64
  %156 = getelementptr inbounds i8, ptr %151, i64 %155
  %157 = load i8, ptr %156, align 1, !tbaa !39
  %158 = zext i8 %157 to i32
  br label %160

159:                                              ; preds = %129
  br label %160

160:                                              ; preds = %159, %150
  %161 = phi i32 [ %158, %150 ], [ 46, %159 ]
  %162 = call i32 (ptr, ptr, ...) @sprintf(ptr noundef %133, ptr noundef @.str.16, i32 noundef %161) #12
  store i32 %162, ptr %11, align 4, !tbaa !33
  %163 = load i32, ptr %11, align 4, !tbaa !33
  %164 = icmp slt i32 %163, 0
  br i1 %164, label %165, label %166

165:                                              ; preds = %160
  store i32 1, ptr %15, align 4
  br label %206

166:                                              ; preds = %160
  %167 = load i32, ptr %11, align 4, !tbaa !33
  %168 = load i32, ptr %12, align 4, !tbaa !33
  %169 = add nsw i32 %168, %167
  store i32 %169, ptr %12, align 4, !tbaa !33
  br label %170

170:                                              ; preds = %166, %123
  br label %171

171:                                              ; preds = %170
  %172 = load i32, ptr %14, align 4, !tbaa !33
  %173 = add nsw i32 %172, 1
  store i32 %173, ptr %14, align 4, !tbaa !33
  br label %120, !llvm.loop !86

174:                                              ; preds = %120
  %175 = getelementptr inbounds [120 x i8], ptr %10, i64 0, i64 0
  %176 = load i32, ptr %12, align 4, !tbaa !33
  %177 = sext i32 %176 to i64
  %178 = getelementptr inbounds i8, ptr %175, i64 %177
  %179 = call i32 (ptr, ptr, ...) @sprintf(ptr noundef %178, ptr noundef @.str.17) #12
  store i32 %179, ptr %11, align 4, !tbaa !33
  %180 = load i32, ptr %11, align 4, !tbaa !33
  %181 = icmp slt i32 %180, 0
  br i1 %181, label %182, label %183

182:                                              ; preds = %174
  store i32 1, ptr %15, align 4
  br label %206

183:                                              ; preds = %174
  %184 = load i32, ptr %6, align 4, !tbaa !33
  %185 = icmp sge i32 %184, 0
  br i1 %185, label %186, label %200

186:                                              ; preds = %183
  %187 = load i32, ptr %6, align 4, !tbaa !33
  %188 = icmp slt i32 %187, 64
  br i1 %188, label %189, label %200

189:                                              ; preds = %186
  %190 = load i32, ptr %6, align 4, !tbaa !33
  %191 = sext i32 %190 to i64
  %192 = getelementptr inbounds [64 x %struct.pmix_output_desc_t], ptr @pmix_output_info, i64 0, i64 %191
  %193 = getelementptr inbounds nuw %struct.pmix_output_desc_t, ptr %192, i32 0, i32 2
  %194 = load i32, ptr %193, align 4, !tbaa !66
  %195 = load i32, ptr %5, align 4, !tbaa !33
  %196 = icmp sge i32 %194, %195
  br i1 %196, label %197, label %200

197:                                              ; preds = %189
  %198 = load i32, ptr %6, align 4, !tbaa !33
  %199 = getelementptr inbounds [120 x i8], ptr %10, i64 0, i64 0
  call void (i32, ptr, ...) @pmix_output(i32 noundef %198, ptr noundef @.str.18, ptr noundef %199)
  br label %200

200:                                              ; preds = %197, %189, %186, %183
  br label %201

201:                                              ; preds = %200
  %202 = load i32, ptr %13, align 4, !tbaa !33
  %203 = add nsw i32 %202, 16
  store i32 %203, ptr %13, align 4, !tbaa !33
  br label %49, !llvm.loop !87

204:                                              ; preds = %49
  br label %205

205:                                              ; preds = %204, %22, %19, %4
  store i32 0, ptr %15, align 4
  br label %206

206:                                              ; preds = %205, %182, %165, %115, %99, %62
  call void @llvm.lifetime.end.p0(i64 4, ptr %14) #12
  call void @llvm.lifetime.end.p0(i64 4, ptr %13) #12
  call void @llvm.lifetime.end.p0(i64 4, ptr %12) #12
  call void @llvm.lifetime.end.p0(i64 4, ptr %11) #12
  call void @llvm.lifetime.end.p0(i64 120, ptr %10) #12
  call void @llvm.lifetime.end.p0(i64 8, ptr %9) #12
  %207 = load i32, ptr %15, align 4
  switch i32 %207, label %209 [
    i32 0, label %208
    i32 1, label %208
  ]

208:                                              ; preds = %206, %206
  ret void

209:                                              ; preds = %206
  unreachable
}