; Function Attrs: nounwind uwtable
define void @pmix_output_hexdump(i32 noundef %0, i32 noundef %1, ptr noundef %2, i32 noundef %3) local_unnamed_addr #2 {
  %5 = alloca [120 x i8], align 16
  call void @llvm.lifetime.start.p0(i64 120, ptr nonnull %5) #22
  %or.cond = icmp ult i32 %1, 64
  br i1 %or.cond, label %6, label %.loopexit

6:                                                ; preds = %4
  %7 = zext nneg i32 %1 to i64
  %8 = getelementptr inbounds nuw [64 x %struct.pmix_output_desc_t], ptr @pmix_output_info, i64 0, i64 %7, i32 2
  %9 = load i32, ptr %8, align 4, !tbaa !47
  %.not = icmp slt i32 %9, %0
  br i1 %.not, label %.loopexit, label %10

10:                                               ; preds = %6
  tail call void (i32, ptr, ...) @pmix_output(i32 noundef %1, ptr noundef nonnull @.str.11, ptr noundef %2, i32 noundef %3)
  %11 = icmp sgt i32 %3, 0
  br i1 %11, label %.lr.ph.preheader, label %.loopexit

.lr.ph.preheader:                                 ; preds = %10
  %12 = zext nneg i32 %3 to i64
  br label %.lr.ph

.lr.ph:                                           ; preds = %.lr.ph.preheader, %53
  %indvars.iv93 = phi i64 [ 0, %.lr.ph.preheader ], [ %indvars.iv.next94, %53 ]
  %13 = trunc nuw nsw i64 %indvars.iv93 to i32
  %14 = call i32 (ptr, ptr, ...) @sprintf(ptr noundef nonnull dereferenceable(1) %5, ptr noundef nonnull dereferenceable(1) @.str.12, i32 noundef %13) #22
  %15 = icmp slt i32 %14, 0
  br i1 %15, label %.loopexit, label %.preheader

.preheader:                                       ; preds = %.lr.ph, %26
  %indvars.iv = phi i64 [ %indvars.iv.next, %26 ], [ 0, %.lr.ph ]
  %.06481 = phi i32 [ %27, %26 ], [ %14, %.lr.ph ]
  %16 = or disjoint i64 %indvars.iv, %indvars.iv93
  %17 = icmp samesign ult i64 %16, %12
  %18 = zext nneg i32 %.06481 to i64
  %19 = getelementptr inbounds nuw i8, ptr %5, i64 %18
  br i1 %17, label %20, label %.thread

.thread:                                          ; preds = %.preheader
  store i32 2105376, ptr %19, align 1
  br label %26

20:                                               ; preds = %.preheader
  %21 = getelementptr inbounds nuw i8, ptr %2, i64 %16
  %22 = load i8, ptr %21, align 1, !tbaa !33
  %23 = zext i8 %22 to i32
  %24 = call i32 (ptr, ptr, ...) @sprintf(ptr noundef nonnull dereferenceable(1) %19, ptr noundef nonnull dereferenceable(1) @.str.13, i32 noundef %23) #22
  %25 = icmp slt i32 %24, 0
  br i1 %25, label %.loopexit, label %26

26:                                               ; preds = %.thread, %20
  %.06678 = phi i32 [ 3, %.thread ], [ %24, %20 ]
  %27 = add nuw nsw i32 %.06678, %.06481
  %indvars.iv.next = add nuw nsw i64 %indvars.iv, 1
  %exitcond.not = icmp eq i64 %indvars.iv.next, 16
  br i1 %exitcond.not, label %28, label %.preheader, !llvm.loop !61

28:                                               ; preds = %26
  %29 = zext nneg i32 %27 to i64
  %30 = getelementptr inbounds nuw i8, ptr %5, i64 %29
  store i16 32, ptr %30, align 1
  %31 = add nuw nsw i32 %27, 1
  br label %32

32:                                               ; preds = %28, %47
  %indvars.iv89 = phi i64 [ 0, %28 ], [ %indvars.iv.next90, %47 ]
  %.16583 = phi i32 [ %31, %28 ], [ %.2, %47 ]
  %33 = or disjoint i64 %indvars.iv89, %indvars.iv93
  %34 = icmp samesign ult i64 %33, %12
  br i1 %34, label %35, label %47

35:                                               ; preds = %32
  %36 = zext nneg i32 %.16583 to i64
  %37 = getelementptr inbounds nuw i8, ptr %5, i64 %36
  %38 = tail call ptr @__ctype_b_loc() #25
  %39 = load ptr, ptr %38, align 8, !tbaa !62
  %40 = getelementptr inbounds nuw i8, ptr %2, i64 %33
  %41 = load i8, ptr %40, align 1, !tbaa !33
  %42 = zext i8 %41 to i64
  %43 = getelementptr inbounds nuw i16, ptr %39, i64 %42
  %44 = load i16, ptr %43, align 2, !tbaa !64
  %45 = and i16 %44, 16384
  %.not76 = icmp eq i16 %45, 0
  %spec.select = select i1 %.not76, i8 46, i8 %41
  store i8 %spec.select, ptr %37, align 1
  %nul = getelementptr inbounds nuw i8, ptr %37, i64 1
  store i8 0, ptr %nul, align 1
  %46 = add nuw nsw i32 %.16583, 1
  br label %47

47:                                               ; preds = %32, %35
  %.2 = phi i32 [ %46, %35 ], [ %.16583, %32 ]
  %indvars.iv.next90 = add nuw nsw i64 %indvars.iv89, 1
  %exitcond92.not = icmp eq i64 %indvars.iv.next90, 16
  br i1 %exitcond92.not, label %48, label %32, !llvm.loop !66

48:                                               ; preds = %47
  %49 = zext nneg i32 %.2 to i64
  %50 = getelementptr inbounds nuw i8, ptr %5, i64 %49
  store i16 10, ptr %50, align 1
  %51 = load i32, ptr %8, align 4, !tbaa !47
  %.not75 = icmp slt i32 %51, %0
  br i1 %.not75, label %53, label %52

52:                                               ; preds = %48
  call void (i32, ptr, ...) @pmix_output(i32 noundef %1, ptr noundef nonnull @.str.18, ptr noundef nonnull %5)
  br label %53

53:                                               ; preds = %48, %52
  %indvars.iv.next94 = add nuw nsw i64 %indvars.iv93, 16
  %54 = trunc nuw i64 %indvars.iv.next94 to i32
  %55 = icmp sgt i32 %3, %54
  br i1 %55, label %.lr.ph, label %.loopexit, !llvm.loop !67

.loopexit:                                        ; preds = %.lr.ph, %53, %20, %10, %4, %6
  call void @llvm.lifetime.end.p0(i64 120, ptr nonnull %5) #22
  ret void
}